target datalayout = "e-m:e-p270:32:32-p271:32:32-p272:64:64-i64:64-i128:128-f80:128-n8:16:32:64-S128"
target triple = "x86_64-pc-linux-gnu"

%class.FileIO = type <{ %struct.duFileIO, ptr, i32, [4 x i8] }>
%struct.duFileIO = type { ptr }
%class.Sample_Debug = type <{ %class.Sample, ptr, ptr, ptr, [3 x float], [3 x float], [3 x float], [3 x float], i32, [4 x i8] }>
%class.Sample = type { ptr, ptr, ptr, ptr, ptr, i8, float, float, float, float, float, float, float, float, float, float, float, float, float, i32, i8, i8, i8, ptr, [9 x ptr], ptr, %class.SampleDebugDraw }
%class.SampleDebugDraw = type { %class.DebugDrawGL }
%class.DebugDrawGL = type { %struct.duDebugDraw }
%struct.duDebugDraw = type { ptr }
%struct.rcContourSet = type <{ ptr, i32, [3 x float], [3 x float], float, float, i32, i32, i32, float, [4 x i8] }>

@.str = private unnamed_addr constant [42 x i8] c"PathSet_TMP_NA_PathingTestAReg1_1_2_CS.rc\00", align 1
@.str.1 = private unnamed_addr constant [33 x i8] c"bmin=(%f,%f,%f) bmax=(%f,%f,%f)\0A\00", align 1
@.str.2 = private unnamed_addr constant [13 x i8] c"cs=%f ch=%f\0A\00", align 1
@.str.3 = private unnamed_addr constant [26 x i8] c"could not open test.cset\0A\00", align 1
@.str.4 = private unnamed_addr constant [22 x i8] c"Could not alloc cset\0A\00", align 1

; Function Attrs: mustprogress uwtable
define dso_local void @_ZN12Sample_DebugC2Ev(ptr noundef nonnull align 8 dereferenceable(276) %0) unnamed_addr #0 align 2 personality ptr @__gxx_personality_v0 {
  %2 = alloca ptr, align 8
  %3 = alloca ptr, align 8
  %4 = alloca i32, align 4
  %5 = alloca %class.FileIO, align 8
  store ptr %0, ptr %2, align 8
  %6 = load ptr, ptr %2, align 8
  call void @_ZN6SampleC2Ev(ptr noundef nonnull align 8 dereferenceable(200) %6)
  store ptr getelementptr inbounds ({ [25 x ptr] }, ptr @_ZTV12Sample_Debug, i32 0, i32 0, i32 2), ptr %6, align 8
  %7 = getelementptr inbounds %class.Sample_Debug, ptr %6, i32 0, i32 1
  store ptr null, ptr %7, align 8
  %8 = getelementptr inbounds %class.Sample_Debug, ptr %6, i32 0, i32 2
  store ptr null, ptr %8, align 8
  %9 = getelementptr inbounds %class.Sample_Debug, ptr %6, i32 0, i32 3
  store ptr null, ptr %9, align 8
  invoke void @_ZN6Sample19resetCommonSettingsEv(ptr noundef nonnull align 8 dereferenceable(200) %6)
          to label %10 unwind label %76

10:                                               ; preds = %1
  %11 = invoke noundef ptr @_Z17rcAllocContourSetv()
          to label %12 unwind label %76

12:                                               ; preds = %10
  %13 = getelementptr inbounds %class.Sample_Debug, ptr %6, i32 0, i32 2
  store ptr %11, ptr %13, align 8
  %14 = getelementptr inbounds %class.Sample_Debug, ptr %6, i32 0, i32 2
  %15 = load ptr, ptr %14, align 8
  %16 = icmp ne ptr %15, null
  br i1 %16, label %17, label %88

17:                                               ; preds = %12
  invoke void @_ZN6FileIOC1Ev(ptr noundef nonnull align 8 dereferenceable(20) %5)
          to label %18 unwind label %76

18:                                               ; preds = %17
  %19 = invoke noundef zeroext i1 @_ZN6FileIO11openForReadEPKc(ptr noundef nonnull align 8 dereferenceable(20) %5, ptr noundef @.str)
          to label %20 unwind label %80

20:                                               ; preds = %18
  br i1 %19, label %21, label %84

21:                                               ; preds = %20
  %22 = getelementptr inbounds %class.Sample_Debug, ptr %6, i32 0, i32 2
  %23 = load ptr, ptr %22, align 8
  %24 = invoke noundef zeroext i1 @_Z16duReadContourSetR12rcContourSetP8duFileIO(ptr noundef nonnull align 8 dereferenceable(60) %23, ptr noundef %5)
          to label %25 unwind label %80

25:                                               ; preds = %21
  %26 = getelementptr inbounds %class.Sample_Debug, ptr %6, i32 0, i32 2
  %27 = load ptr, ptr %26, align 8
  %28 = getelementptr inbounds %struct.rcContourSet, ptr %27, i32 0, i32 2
  %29 = getelementptr inbounds [3 x float], ptr %28, i64 0, i64 0
  %30 = load float, ptr %29, align 4
  %31 = fpext float %30 to double
  %32 = getelementptr inbounds %class.Sample_Debug, ptr %6, i32 0, i32 2
  %33 = load ptr, ptr %32, align 8
  %34 = getelementptr inbounds %struct.rcContourSet, ptr %33, i32 0, i32 2
  %35 = getelementptr inbounds [3 x float], ptr %34, i64 0, i64 1
  %36 = load float, ptr %35, align 4
  %37 = fpext float %36 to double
  %38 = getelementptr inbounds %class.Sample_Debug, ptr %6, i32 0, i32 2
  %39 = load ptr, ptr %38, align 8
  %40 = getelementptr inbounds %struct.rcContourSet, ptr %39, i32 0, i32 2
  %41 = getelementptr inbounds [3 x float], ptr %40, i64 0, i64 2
  %42 = load float, ptr %41, align 4
  %43 = fpext float %42 to double
  %44 = getelementptr inbounds %class.Sample_Debug, ptr %6, i32 0, i32 2
  %45 = load ptr, ptr %44, align 8
  %46 = getelementptr inbounds %struct.rcContourSet, ptr %45, i32 0, i32 3
  %47 = getelementptr inbounds [3 x float], ptr %46, i64 0, i64 0
  %48 = load float, ptr %47, align 8
  %49 = fpext float %48 to double
  %50 = getelementptr inbounds %class.Sample_Debug, ptr %6, i32 0, i32 2
  %51 = load ptr, ptr %50, align 8
  %52 = getelementptr inbounds %struct.rcContourSet, ptr %51, i32 0, i32 3
  %53 = getelementptr inbounds [3 x float], ptr %52, i64 0, i64 1
  %54 = load float, ptr %53, align 4
  %55 = fpext float %54 to double
  %56 = getelementptr inbounds %class.Sample_Debug, ptr %6, i32 0, i32 2
  %57 = load ptr, ptr %56, align 8
  %58 = getelementptr inbounds %struct.rcContourSet, ptr %57, i32 0, i32 3
  %59 = getelementptr inbounds [3 x float], ptr %58, i64 0, i64 2
  %60 = load float, ptr %59, align 8
  %61 = fpext float %60 to double
  %62 = invoke i32 (ptr, ...) @printf(ptr noundef @.str.1, double noundef %31, double noundef %37, double noundef %43, double noundef %49, double noundef %55, double noundef %61)
          to label %63 unwind label %80

63:                                               ; preds = %25
  %64 = getelementptr inbounds %class.Sample_Debug, ptr %6, i32 0, i32 2
  %65 = load ptr, ptr %64, align 8
  %66 = getelementptr inbounds %struct.rcContourSet, ptr %65, i32 0, i32 4
  %67 = load float, ptr %66, align 4
  %68 = fpext float %67 to double
  %69 = getelementptr inbounds %class.Sample_Debug, ptr %6, i32 0, i32 2
  %70 = load ptr, ptr %69, align 8
  %71 = getelementptr inbounds %struct.rcContourSet, ptr %70, i32 0, i32 5
  %72 = load float, ptr %71, align 8
  %73 = fpext float %72 to double
  %74 = invoke i32 (ptr, ...) @printf(ptr noundef @.str.2, double noundef %68, double noundef %73)
          to label %75 unwind label %80

75:                                               ; preds = %63
  br label %87

76:                                               ; preds = %88, %17, %10, %1
  %77 = landingpad { ptr, i32 }
          cleanup
  %78 = extractvalue { ptr, i32 } %77, 0
  store ptr %78, ptr %3, align 8
  %79 = extractvalue { ptr, i32 } %77, 1
  store i32 %79, ptr %4, align 4
  br label %92

80:                                               ; preds = %84, %63, %25, %21, %18
  %81 = landingpad { ptr, i32 }
          cleanup
  %82 = extractvalue { ptr, i32 } %81, 0
  store ptr %82, ptr %3, align 8
  %83 = extractvalue { ptr, i32 } %81, 1
  store i32 %83, ptr %4, align 4
  call void @_ZN6FileIOD1Ev(ptr noundef nonnull align 8 dereferenceable(20) %5) #6
  br label %92

84:                                               ; preds = %20
  %85 = invoke i32 (ptr, ...) @printf(ptr noundef @.str.3)
          to label %86 unwind label %80

86:                                               ; preds = %84
  br label %87

87:                                               ; preds = %86, %75
  call void @_ZN6FileIOD1Ev(ptr noundef nonnull align 8 dereferenceable(20) %5) #6
  br label %91

88:                                               ; preds = %12
  %89 = invoke i32 (ptr, ...) @printf(ptr noundef @.str.4)
          to label %90 unwind label %76

90:                                               ; preds = %88
  br label %91

91:                                               ; preds = %90, %87
  ret void

92:                                               ; preds = %80, %76
  call void @_ZN6SampleD2Ev(ptr noundef nonnull align 8 dereferenceable(200) %6) #6
  br label %93

93:                                               ; preds = %92
  %94 = load ptr, ptr %3, align 8
  %95 = load i32, ptr %4, align 4
  %96 = insertvalue { ptr, i32 } poison, ptr %94, 0
  %97 = insertvalue { ptr, i32 } %96, i32 %95, 1
  resume { ptr, i32 } %97
}