; Function Attrs: mustprogress uwtable
define dso_local void @_ZN12Sample_DebugC2Ev(ptr noundef nonnull align 8 dereferenceable(276) %0) unnamed_addr #0 align 2 personality ptr @__gxx_personality_v0 {
  %2 = alloca %class.FileIO, align 8
  tail call void @_ZN6SampleC2Ev(ptr noundef nonnull align 8 dereferenceable(200) %0)
  store ptr getelementptr inbounds ({ [25 x ptr] }, ptr @_ZTV12Sample_Debug, i64 0, i32 0, i64 2), ptr %0, align 8
  %3 = getelementptr inbounds i8, ptr %0, i64 200
  %4 = getelementptr inbounds i8, ptr %0, i64 208
  tail call void @llvm.memset.p0.i64(ptr noundef nonnull align 8 dereferenceable(24) %3, i8 0, i64 24, i1 false)
  invoke void @_ZN6Sample19resetCommonSettingsEv(ptr noundef nonnull align 8 dereferenceable(200) %0)
          to label %5 unwind label %44

5:                                                ; preds = %1
  %6 = invoke noundef ptr @_Z17rcAllocContourSetv()
          to label %7 unwind label %44

7:                                                ; preds = %5
  store ptr %6, ptr %4, align 8
  %.not = icmp eq ptr %6, null
  br i1 %.not, label %50, label %8

8:                                                ; preds = %7
  invoke void @_ZN6FileIOC1Ev(ptr noundef nonnull align 8 dereferenceable(20) %2)
          to label %9 unwind label %44

9:                                                ; preds = %8
  %10 = invoke noundef zeroext i1 @_ZN6FileIO11openForReadEPKc(ptr noundef nonnull align 8 dereferenceable(20) %2, ptr noundef nonnull @.str)
          to label %11 unwind label %46

11:                                               ; preds = %9
  br i1 %10, label %12, label %48

12:                                               ; preds = %11
  %13 = load ptr, ptr %4, align 8
  %14 = invoke noundef zeroext i1 @_Z16duReadContourSetR12rcContourSetP8duFileIO(ptr noundef nonnull align 8 dereferenceable(60) %13, ptr noundef nonnull %2)
          to label %15 unwind label %46

15:                                               ; preds = %12
  %16 = load ptr, ptr %4, align 8
  %17 = getelementptr inbounds i8, ptr %16, i64 12
  %18 = load float, ptr %17, align 4
  %19 = fpext float %18 to double
  %20 = getelementptr inbounds i8, ptr %16, i64 16
  %21 = load float, ptr %20, align 4
  %22 = fpext float %21 to double
  %23 = getelementptr inbounds i8, ptr %16, i64 20
  %24 = load float, ptr %23, align 4
  %25 = fpext float %24 to double
  %26 = getelementptr inbounds i8, ptr %16, i64 24
  %27 = load float, ptr %26, align 8
  %28 = fpext float %27 to double
  %29 = getelementptr inbounds i8, ptr %16, i64 28
  %30 = load float, ptr %29, align 4
  %31 = fpext float %30 to double
  %32 = getelementptr inbounds i8, ptr %16, i64 32
  %33 = load float, ptr %32, align 8
  %34 = fpext float %33 to double
  %35 = call i32 (ptr, ...) @printf(ptr noundef nonnull dereferenceable(1) @.str.1, double noundef %19, double noundef %22, double noundef %25, double noundef %28, double noundef %31, double noundef %34)
  %36 = load ptr, ptr %4, align 8
  %37 = getelementptr inbounds i8, ptr %36, i64 36
  %38 = load float, ptr %37, align 4
  %39 = fpext float %38 to double
  %40 = getelementptr inbounds i8, ptr %36, i64 40
  %41 = load float, ptr %40, align 8
  %42 = fpext float %41 to double
  %43 = call i32 (ptr, ...) @printf(ptr noundef nonnull dereferenceable(1) @.str.2, double noundef %39, double noundef %42)
  br label %49

44:                                               ; preds = %8, %5, %1
  %45 = landingpad { ptr, i32 }
          cleanup
  br label %52

46:                                               ; preds = %12, %9
  %47 = landingpad { ptr, i32 }
          cleanup
  call void @_ZN6FileIOD1Ev(ptr noundef nonnull align 8 dereferenceable(20) %2) #12
  br label %52

48:                                               ; preds = %11
  %puts3 = call i32 @puts(ptr nonnull dereferenceable(1) @str.1)
  br label %49

49:                                               ; preds = %48, %15
  call void @_ZN6FileIOD1Ev(ptr noundef nonnull align 8 dereferenceable(20) %2) #12
  br label %51

50:                                               ; preds = %7
  %puts = tail call i32 @puts(ptr nonnull dereferenceable(1) @str)
  br label %51

51:                                               ; preds = %50, %49
  ret void

52:                                               ; preds = %46, %44
  %.pn = phi { ptr, i32 } [ %47, %46 ], [ %45, %44 ]
  call void @_ZN6SampleD2Ev(ptr noundef nonnull align 8 dereferenceable(200) %0) #12
  resume { ptr, i32 } %.pn
}